; Function Attrs: nounwind uwtable
define ptr @l___private_Lean_Meta_Tactic_Grind_Ctor_0__Lean_Meta_Grind_propagateInjEqs___lambda__1(ptr noundef %0, ptr noundef %1, ptr noundef %2, ptr noundef %3, ptr noundef %4, ptr noundef %5, ptr noundef %6, ptr noundef %7, ptr noundef %8, ptr noundef %9, ptr noundef %10, ptr noundef %11) local_unnamed_addr #1 {
  %13 = tail call ptr @l_Lean_Meta_Grind_shareCommon(ptr noundef %1, ptr noundef %4, ptr noundef %5, ptr noundef %6, ptr noundef %7, ptr noundef %8, ptr noundef %9, ptr noundef %10, ptr noundef %11) #4
  %14 = getelementptr inbounds nuw i8, ptr %13, i64 8
  %15 = load ptr, ptr %14, align 8, !tbaa !11
  %16 = ptrtoint ptr %15 to i64
  %17 = and i64 %16, 1
  %.not = icmp eq i64 %17, 0
  br i1 %.not, label %18, label %lean_inc.exit

18:                                               ; preds = %12
  %.val.i = load i32, ptr %15, align 4, !tbaa !8
  %19 = icmp sgt i32 %.val.i, 0
  br i1 %19, label %20, label %22, !prof !13

20:                                               ; preds = %18
  %21 = add nuw i32 %.val.i, 1
  store i32 %21, ptr %15, align 4, !tbaa !8
  br label %lean_inc.exit

22:                                               ; preds = %18
  %.not.i47 = icmp eq i32 %.val.i, 0
  br i1 %.not.i47, label %lean_inc.exit, label %23

23:                                               ; preds = %22
  tail call void @lean_inc_ref_cold(ptr noundef nonnull %15) #4
  br label %lean_inc.exit

lean_inc.exit:                                    ; preds = %23, %22, %20, %12
  %24 = getelementptr inbounds nuw i8, ptr %13, i64 16
  %25 = load ptr, ptr %24, align 8, !tbaa !11
  %26 = ptrtoint ptr %25 to i64
  %27 = and i64 %26, 1
  %.not57 = icmp eq i64 %27, 0
  br i1 %.not57, label %28, label %lean_inc.exit41

28:                                               ; preds = %lean_inc.exit
  %.val.i48 = load i32, ptr %25, align 4, !tbaa !8
  %29 = icmp sgt i32 %.val.i48, 0
  br i1 %29, label %30, label %32, !prof !13

30:                                               ; preds = %28
  %31 = add nuw i32 %.val.i48, 1
  store i32 %31, ptr %25, align 4, !tbaa !8
  br label %lean_inc.exit41

32:                                               ; preds = %28
  %.not.i49 = icmp eq i32 %.val.i48, 0
  br i1 %.not.i49, label %lean_inc.exit41, label %33

33:                                               ; preds = %32
  tail call void @lean_inc_ref_cold(ptr noundef nonnull %25) #4
  br label %lean_inc.exit41

lean_inc.exit41:                                  ; preds = %33, %32, %30, %lean_inc.exit
  %34 = ptrtoint ptr %13 to i64
  %35 = and i64 %34, 1
  %.not58 = icmp eq i64 %35, 0
  br i1 %.not58, label %36, label %lean_dec.exit

36:                                               ; preds = %lean_inc.exit41
  %37 = load i32, ptr %13, align 4, !tbaa !8
  %38 = icmp sgt i32 %37, 1
  br i1 %38, label %39, label %41, !prof !13

39:                                               ; preds = %36
  %40 = add nsw i32 %37, -1
  store i32 %40, ptr %13, align 4, !tbaa !8
  br label %lean_dec.exit

41:                                               ; preds = %36
  %.not.i45 = icmp eq i32 %37, 0
  br i1 %.not.i45, label %lean_dec.exit, label %42

42:                                               ; preds = %41
  tail call void @lean_dec_ref_cold(ptr noundef nonnull %13) #4
  br label %lean_dec.exit

lean_dec.exit:                                    ; preds = %42, %41, %39, %lean_inc.exit41
  %43 = tail call ptr @l_Lean_Meta_Grind_shareCommon(ptr noundef %2, ptr noundef %4, ptr noundef %5, ptr noundef %6, ptr noundef %7, ptr noundef %8, ptr noundef %9, ptr noundef %10, ptr noundef %25) #4
  %44 = getelementptr inbounds nuw i8, ptr %43, i64 8
  %45 = load ptr, ptr %44, align 8, !tbaa !11
  %46 = ptrtoint ptr %45 to i64
  %47 = and i64 %46, 1
  %.not59 = icmp eq i64 %47, 0
  br i1 %.not59, label %48, label %lean_inc.exit42

48:                                               ; preds = %lean_dec.exit
  %.val.i51 = load i32, ptr %45, align 4, !tbaa !8
  %49 = icmp sgt i32 %.val.i51, 0
  br i1 %49, label %50, label %52, !prof !13

50:                                               ; preds = %48
  %51 = add nuw i32 %.val.i51, 1
  store i32 %51, ptr %45, align 4, !tbaa !8
  br label %lean_inc.exit42

52:                                               ; preds = %48
  %.not.i52 = icmp eq i32 %.val.i51, 0
  br i1 %.not.i52, label %lean_inc.exit42, label %53

53:                                               ; preds = %52
  tail call void @lean_inc_ref_cold(ptr noundef nonnull %45) #4
  br label %lean_inc.exit42

lean_inc.exit42:                                  ; preds = %53, %52, %50, %lean_dec.exit
  %54 = getelementptr inbounds nuw i8, ptr %43, i64 16
  %55 = load ptr, ptr %54, align 8, !tbaa !11
  %56 = ptrtoint ptr %55 to i64
  %57 = and i64 %56, 1
  %.not60 = icmp eq i64 %57, 0
  br i1 %.not60, label %58, label %lean_inc.exit43

58:                                               ; preds = %lean_inc.exit42
  %.val.i54 = load i32, ptr %55, align 4, !tbaa !8
  %59 = icmp sgt i32 %.val.i54, 0
  br i1 %59, label %60, label %62, !prof !13

60:                                               ; preds = %58
  %61 = add nuw i32 %.val.i54, 1
  store i32 %61, ptr %55, align 4, !tbaa !8
  br label %lean_inc.exit43

62:                                               ; preds = %58
  %.not.i55 = icmp eq i32 %.val.i54, 0
  br i1 %.not.i55, label %lean_inc.exit43, label %63

63:                                               ; preds = %62
  tail call void @lean_inc_ref_cold(ptr noundef nonnull %55) #4
  br label %lean_inc.exit43

lean_inc.exit43:                                  ; preds = %63, %62, %60, %lean_inc.exit42
  %64 = ptrtoint ptr %43 to i64
  %65 = and i64 %64, 1
  %.not61 = icmp eq i64 %65, 0
  br i1 %.not61, label %66, label %lean_dec.exit44

66:                                               ; preds = %lean_inc.exit43
  %67 = load i32, ptr %43, align 4, !tbaa !8
  %68 = icmp sgt i32 %67, 1
  br i1 %68, label %69, label %71, !prof !13

69:                                               ; preds = %66
  %70 = add nsw i32 %67, -1
  store i32 %70, ptr %43, align 4, !tbaa !8
  br label %lean_dec.exit44

71:                                               ; preds = %66
  %.not.i = icmp eq i32 %67, 0
  br i1 %.not.i, label %lean_dec.exit44, label %72

72:                                               ; preds = %71
  tail call void @lean_dec_ref_cold(ptr noundef nonnull %43) #4
  br label %lean_dec.exit44

lean_dec.exit44:                                  ; preds = %72, %71, %69, %lean_inc.exit43
  %73 = tail call ptr @l_Lean_Meta_Grind_pushEqCore(ptr noundef %15, ptr noundef %45, ptr noundef %0, i8 noundef zeroext 1, ptr noundef %3, ptr noundef %4, ptr noundef %5, ptr noundef %6, ptr noundef %7, ptr noundef %8, ptr noundef %9, ptr noundef %10, ptr noundef %55) #4
  ret ptr %73
}